target datalayout = "e-m:e-p270:32:32-p271:32:32-p272:64:64-i64:64-i128:128-f80:128-n8:16:32:64-S128"
target triple = "x86_64-pc-linux-gnu"

%"struct.Atomic::LoadImpl.80" = type { i8 }
%"struct.Atomic::CmpxchgImpl.81" = type { i8 }
%"struct.Atomic::PlatformLoad.28" = type { i8 }
%"struct.Atomic::PlatformCmpxchg.82" = type { i8 }

@_ZN16java_lang_String13_flags_offsetE = hidden global i32 0, align 4

; Function Attrs: mustprogress nounwind uwtable
define linkonce_odr hidden noundef zeroext i8 @_ZNK6Atomic15PlatformCmpxchgILm1EEclIhEET_PVS3_S3_S3_19atomic_memory_order(ptr noundef nonnull align 1 dereferenceable(1) %0, ptr noundef %1, i8 noundef zeroext %2, i8 noundef zeroext %3, i32 noundef %4) #1 comdat align 2 {
  %6 = alloca ptr, align 8
  %7 = alloca ptr, align 8
  %8 = alloca i8, align 1
  %9 = alloca i8, align 1
  %10 = alloca i32, align 4
  store ptr %0, ptr %6, align 8
  store ptr %1, ptr %7, align 8
  store i8 %2, ptr %8, align 1
  store i8 %3, ptr %9, align 1
  store i32 %4, ptr %10, align 4
  %11 = load i8, ptr %9, align 1
  %12 = load i8, ptr %8, align 1
  %13 = load ptr, ptr %7, align 8
  %14 = call i8 asm sideeffect "lock cmpxchgb $1,($3)", "={ax},q,{ax},r,~{cc},~{memory},~{dirflag},~{fpsr},~{flags}"(i8 %11, i8 %12, ptr %13) #10, !srcloc !62
  store i8 %14, ptr %9, align 1
  %15 = load i8, ptr %9, align 1
  ret i8 %15
}

; Function Attrs: mustprogress nounwind uwtable
define linkonce_odr hidden noundef zeroext i8 @_ZNK6Atomic12PlatformLoadILm1EEclIhEET_PVKS3_(ptr noundef nonnull align 1 dereferenceable(1) %0, ptr noundef %1) #1 comdat align 2 {
  %3 = alloca ptr, align 8
  %4 = alloca ptr, align 8
  store ptr %0, ptr %3, align 8
  store ptr %1, ptr %4, align 8
  %5 = load ptr, ptr %4, align 8
  %6 = load volatile i8, ptr %5, align 1
  ret i8 %6
}

; Function Attrs: mustprogress nounwind uwtable
define linkonce_odr hidden noundef i64 @_Z13cast_from_oopIlET_P7oopDesc(ptr noundef %0) #1 comdat {
  %2 = alloca ptr, align 8
  store ptr %0, ptr %2, align 8
  %3 = load ptr, ptr %2, align 8
  %4 = ptrtoint ptr %3 to i64
  ret i64 %4
}

; Function Attrs: mustprogress nounwind uwtable
define linkonce_odr hidden noundef ptr @_ZNK7oopDesc6as_oopEv(ptr noundef nonnull align 8 dereferenceable(16) %0) #1 comdat align 2 {
  %2 = alloca ptr, align 8
  store ptr %0, ptr %2, align 8
  %3 = load ptr, ptr %2, align 8
  ret ptr %3
}

; Function Attrs: mustprogress nounwind uwtable
define linkonce_odr hidden noundef zeroext i8 @_ZNK6Atomic11CmpxchgImplIhhhvEclEPVhhh19atomic_memory_order(ptr noundef nonnull align 1 dereferenceable(1) %0, ptr noundef %1, i8 noundef zeroext %2, i8 noundef zeroext %3, i32 noundef %4) #1 comdat align 2 {
  %6 = alloca ptr, align 8
  %7 = alloca ptr, align 8
  %8 = alloca i8, align 1
  %9 = alloca i8, align 1
  %10 = alloca i32, align 4
  %11 = alloca %"struct.Atomic::PlatformCmpxchg.82", align 1
  store ptr %0, ptr %6, align 8
  store ptr %1, ptr %7, align 8
  store i8 %2, ptr %8, align 1
  store i8 %3, ptr %9, align 1
  store i32 %4, ptr %10, align 4
  %12 = load ptr, ptr %7, align 8
  %13 = load i8, ptr %8, align 1
  %14 = load i8, ptr %9, align 1
  %15 = load i32, ptr %10, align 4
  %16 = call noundef zeroext i8 @_ZNK6Atomic15PlatformCmpxchgILm1EEclIhEET_PVS3_S3_S3_19atomic_memory_order(ptr noundef nonnull align 1 dereferenceable(1) %11, ptr noundef %12, i8 noundef zeroext %13, i8 noundef zeroext %14, i32 noundef %15)
  ret i8 %16
}

; Function Attrs: mustprogress nounwind uwtable
define linkonce_odr hidden noundef zeroext i8 @_ZNK6Atomic8LoadImplIhNS_12PlatformLoadILm1EEEvEclEPVKh(ptr noundef nonnull align 1 dereferenceable(1) %0, ptr noundef %1) #1 comdat align 2 {
  %3 = alloca ptr, align 8
  %4 = alloca ptr, align 8
  %5 = alloca %"struct.Atomic::PlatformLoad.28", align 1
  store ptr %0, ptr %3, align 8
  store ptr %1, ptr %4, align 8
  %6 = load ptr, ptr %4, align 8
  %7 = call noundef zeroext i8 @_ZNK6Atomic12PlatformLoadILm1EEclIhEET_PVKS3_(ptr noundef nonnull align 1 dereferenceable(1) %5, ptr noundef %6)
  ret i8 %7
}

; Function Attrs: mustprogress nounwind uwtable
define linkonce_odr hidden noundef ptr @_ZNK7oopDesc10field_addrIhEEPT_i(ptr noundef nonnull align 8 dereferenceable(16) %0, i32 noundef %1) #1 comdat align 2 {
  %3 = alloca ptr, align 8
  %4 = alloca i32, align 4
  store ptr %0, ptr %3, align 8
  store i32 %1, ptr %4, align 4
  %5 = load ptr, ptr %3, align 8
  %6 = call noundef ptr @_ZNK7oopDesc6as_oopEv(ptr noundef nonnull align 8 dereferenceable(16) %5)
  %7 = call noundef i64 @_Z13cast_from_oopIlET_P7oopDesc(ptr noundef %6)
  %8 = load i32, ptr %4, align 4
  %9 = sext i32 %8 to i64
  %10 = add nsw i64 %7, %9
  %11 = inttoptr i64 %10 to ptr
  ret ptr %11
}

; Function Attrs: mustprogress nounwind uwtable
define linkonce_odr hidden noundef zeroext i8 @_ZN6Atomic7cmpxchgIhhhEET_PVS1_T0_T1_19atomic_memory_order(ptr noundef %0, i8 noundef zeroext %1, i8 noundef zeroext %2, i32 noundef %3) #1 comdat align 2 {
  %5 = alloca ptr, align 8
  %6 = alloca i8, align 1
  %7 = alloca i8, align 1
  %8 = alloca i32, align 4
  %9 = alloca %"struct.Atomic::CmpxchgImpl.81", align 1
  store ptr %0, ptr %5, align 8
  store i8 %1, ptr %6, align 1
  store i8 %2, ptr %7, align 1
  store i32 %3, ptr %8, align 4
  %10 = load ptr, ptr %5, align 8
  %11 = load i8, ptr %6, align 1
  %12 = load i8, ptr %7, align 1
  %13 = load i32, ptr %8, align 4
  %14 = call noundef zeroext i8 @_ZNK6Atomic11CmpxchgImplIhhhvEclEPVhhh19atomic_memory_order(ptr noundef nonnull align 1 dereferenceable(1) %9, ptr noundef %10, i8 noundef zeroext %11, i8 noundef zeroext %12, i32 noundef %13)
  ret i8 %14
}

; Function Attrs: mustprogress nounwind uwtable
define linkonce_odr hidden noundef zeroext i8 @_ZN6Atomic4loadIhEET_PVKS1_(ptr noundef %0) #1 comdat align 2 {
  %2 = alloca ptr, align 8
  %3 = alloca %"struct.Atomic::LoadImpl.80", align 1
  store ptr %0, ptr %2, align 8
  %4 = load ptr, ptr %2, align 8
  %5 = call noundef zeroext i8 @_ZNK6Atomic8LoadImplIhNS_12PlatformLoadILm1EEEvEclEPVKh(ptr noundef nonnull align 1 dereferenceable(1) %3, ptr noundef %4)
  ret i8 %5
}

; Function Attrs: mustprogress nounwind uwtable
define linkonce_odr hidden noundef ptr @_ZN16java_lang_String10flags_addrEP7oopDesc(ptr noundef %0) #1 comdat align 2 {
  %2 = alloca ptr, align 8
  store ptr %0, ptr %2, align 8
  %3 = load ptr, ptr %2, align 8
  %4 = load i32, ptr @_ZN16java_lang_String13_flags_offsetE, align 4
  %5 = call noundef ptr @_ZNK7oopDesc10field_addrIhEEPT_i(ptr noundef nonnull align 8 dereferenceable(16) %3, i32 noundef %4)
  ret ptr %5
}

; Function Attrs: mustprogress nounwind uwtable
define hidden noundef zeroext i1 @_ZN16java_lang_String17test_and_set_flagEP7oopDesch(ptr noundef %0, i8 noundef zeroext %1) #1 align 2 {
  %3 = alloca i1, align 1
  %4 = alloca ptr, align 8
  %5 = alloca i8, align 1
  %6 = alloca ptr, align 8
  %7 = alloca i8, align 1
  %8 = alloca i8, align 1
  store ptr %0, ptr %4, align 8
  store i8 %1, ptr %5, align 1
  %9 = load ptr, ptr %4, align 8
  %10 = call noundef ptr @_ZN16java_lang_String10flags_addrEP7oopDesc(ptr noundef %9)
  store ptr %10, ptr %6, align 8
  %11 = load ptr, ptr %6, align 8
  %12 = call noundef zeroext i8 @_ZN6Atomic4loadIhEET_PVKS1_(ptr noundef %11)
  store i8 %12, ptr %7, align 1
  br label %13

13:                                               ; preds = %38, %2
  %14 = load i8, ptr %7, align 1
  %15 = zext i8 %14 to i32
  %16 = load i8, ptr %5, align 1
  %17 = zext i8 %16 to i32
  %18 = and i32 %15, %17
  %19 = icmp eq i32 %18, 0
  br i1 %19, label %20, label %39

20:                                               ; preds = %13
  %21 = load i8, ptr %7, align 1
  store i8 %21, ptr %8, align 1
  %22 = load i8, ptr %5, align 1
  %23 = zext i8 %22 to i32
  %24 = load i8, ptr %7, align 1
  %25 = zext i8 %24 to i32
  %26 = or i32 %25, %23
  %27 = trunc i32 %26 to i8
  store i8 %27, ptr %7, align 1
  %28 = load ptr, ptr %6, align 8
  %29 = load i8, ptr %8, align 1
  %30 = load i8, ptr %7, align 1
  %31 = call noundef zeroext i8 @_ZN6Atomic7cmpxchgIhhhEET_PVS1_T0_T1_19atomic_memory_order(ptr noundef %28, i8 noundef zeroext %29, i8 noundef zeroext %30, i32 noundef 8)
  store i8 %31, ptr %7, align 1
  %32 = load i8, ptr %7, align 1
  %33 = zext i8 %32 to i32
  %34 = load i8, ptr %8, align 1
  %35 = zext i8 %34 to i32
  %36 = icmp eq i32 %33, %35
  br i1 %36, label %37, label %38

37:                                               ; preds = %20
  store i1 false, ptr %3, align 1
  br label %40

38:                                               ; preds = %20
  br label %13, !llvm.loop !8

39:                                               ; preds = %13
  store i1 true, ptr %3, align 1
  br label %40

40:                                               ; preds = %39, %37
  %41 = load i1, ptr %3, align 1
  ret i1 %41
}