; Function Attrs: mustprogress nounwind uwtable
define hidden noundef zeroext i1 @_ZN16java_lang_String17test_and_set_flagEP7oopDesch(ptr noundef %0, i8 noundef zeroext %1) local_unnamed_addr #0 align 2 {
  %3 = load i32, ptr @_ZN16java_lang_String13_flags_offsetE, align 4
  %4 = ptrtoint ptr %0 to i64
  %5 = sext i32 %3 to i64
  %6 = add nsw i64 %5, %4
  %7 = inttoptr i64 %6 to ptr
  %8 = load volatile i8, ptr %7, align 1
  br label %9

9:                                                ; preds = %11, %2
  %.012 = phi i8 [ %8, %2 ], [ %13, %11 ]
  %10 = and i8 %.012, %1
  %.not = icmp ne i8 %10, 0
  br i1 %.not, label %15, label %11

11:                                               ; preds = %9
  %12 = or i8 %.012, %1
  %13 = tail call noundef i8 asm sideeffect "lock cmpxchgb $1,($3)", "={ax},q,{ax},r,~{cc},~{memory},~{dirflag},~{fpsr},~{flags}"(i8 %12, i8 %.012, ptr nonnull %7) #19, !srcloc !8
  %14 = icmp eq i8 %13, %.012
  br i1 %14, label %15, label %9, !llvm.loop !9

15:                                               ; preds = %9, %11
  ret i1 %.not
}